target datalayout = "e-m:e-p270:32:32-p271:32:32-p272:64:64-i64:64-i128:128-f80:128-n8:16:32:64-S128"
target triple = "x86_64-pc-linux-gnu"

%struct.aff_struct = type { ptr, i32, ptr, ptr, %union.anon.0 }
%union.anon.0 = type { %struct.Regis }
%struct.Regis = type { ptr, i32 }

; Function Attrs: nounwind uwtable
define internal ptr @CheckAffix(ptr noundef %0, i64 noundef %1, ptr noundef %2, i32 noundef %3, ptr noundef %4, ptr noundef %5) #0 {
  %7 = alloca ptr, align 8
  %8 = alloca ptr, align 8
  %9 = alloca i64, align 8
  %10 = alloca ptr, align 8
  %11 = alloca i32, align 4
  %12 = alloca ptr, align 8
  %13 = alloca ptr, align 8
  %14 = alloca ptr, align 8
  %15 = alloca i64, align 8
  %16 = alloca i32, align 4
  %17 = alloca i32, align 4
  store ptr %0, ptr %8, align 8
  store i64 %1, ptr %9, align 8
  store ptr %2, ptr %10, align 8
  store i32 %3, ptr %11, align 4
  store ptr %4, ptr %12, align 8
  store ptr %5, ptr %13, align 8
  %18 = load i32, ptr %11, align 4
  %19 = icmp eq i32 %18, 0
  br i1 %19, label %20, label %30

20:                                               ; preds = %6
  %21 = load ptr, ptr %10, align 8
  %22 = getelementptr inbounds nuw %struct.aff_struct, ptr %21, i32 0, i32 1
  %23 = load i32, ptr %22, align 8
  %24 = lshr i32 %23, 1
  %25 = and i32 %24, 127
  %26 = and i32 %25, 1
  %27 = icmp ne i32 %26, 0
  br i1 %27, label %28, label %29

28:                                               ; preds = %20
  store ptr null, ptr %7, align 8
  br label %245

29:                                               ; preds = %20
  br label %115

30:                                               ; preds = %6
  %31 = load i32, ptr %11, align 4
  %32 = and i32 %31, 2
  %33 = icmp ne i32 %32, 0
  br i1 %33, label %34, label %60

34:                                               ; preds = %30
  %35 = load ptr, ptr %10, align 8
  %36 = getelementptr inbounds nuw %struct.aff_struct, ptr %35, i32 0, i32 1
  %37 = load i32, ptr %36, align 8
  %38 = lshr i32 %37, 1
  %39 = and i32 %38, 127
  %40 = and i32 %39, 32
  %41 = icmp ne i32 %40, 0
  br i1 %41, label %42, label %43

42:                                               ; preds = %34
  store ptr null, ptr %7, align 8
  br label %245

43:                                               ; preds = %34
  %44 = load ptr, ptr %10, align 8
  %45 = getelementptr inbounds nuw %struct.aff_struct, ptr %44, i32 0, i32 1
  %46 = load i32, ptr %45, align 8
  %47 = lshr i32 %46, 1
  %48 = and i32 %47, 127
  %49 = and i32 %48, 2
  %50 = icmp eq i32 %49, 0
  br i1 %50, label %51, label %59

51:                                               ; preds = %43
  %52 = load ptr, ptr %10, align 8
  %53 = getelementptr inbounds nuw %struct.aff_struct, ptr %52, i32 0, i32 1
  %54 = load i32, ptr %53, align 8
  %55 = and i32 %54, 1
  %56 = icmp eq i32 %55, 1
  br i1 %56, label %57, label %58

57:                                               ; preds = %51
  store ptr null, ptr %7, align 8
  br label %245

58:                                               ; preds = %51
  br label %59

59:                                               ; preds = %58, %43
  br label %114

60:                                               ; preds = %30
  %61 = load i32, ptr %11, align 4
  %62 = and i32 %61, 4
  %63 = icmp ne i32 %62, 0
  br i1 %63, label %64, label %82

64:                                               ; preds = %60
  %65 = load ptr, ptr %10, align 8
  %66 = getelementptr inbounds nuw %struct.aff_struct, ptr %65, i32 0, i32 1
  %67 = load i32, ptr %66, align 8
  %68 = lshr i32 %67, 1
  %69 = and i32 %68, 127
  %70 = and i32 %69, 4
  %71 = icmp eq i32 %70, 0
  br i1 %71, label %80, label %72

72:                                               ; preds = %64
  %73 = load ptr, ptr %10, align 8
  %74 = getelementptr inbounds nuw %struct.aff_struct, ptr %73, i32 0, i32 1
  %75 = load i32, ptr %74, align 8
  %76 = lshr i32 %75, 1
  %77 = and i32 %76, 127
  %78 = and i32 %77, 32
  %79 = icmp ne i32 %78, 0
  br i1 %79, label %80, label %81

80:                                               ; preds = %72, %64
  store ptr null, ptr %7, align 8
  br label %245

81:                                               ; preds = %72
  br label %113

82:                                               ; preds = %60
  %83 = load i32, ptr %11, align 4
  %84 = and i32 %83, 8
  %85 = icmp ne i32 %84, 0
  br i1 %85, label %86, label %112

86:                                               ; preds = %82
  %87 = load ptr, ptr %10, align 8
  %88 = getelementptr inbounds nuw %struct.aff_struct, ptr %87, i32 0, i32 1
  %89 = load i32, ptr %88, align 8
  %90 = lshr i32 %89, 1
  %91 = and i32 %90, 127
  %92 = and i32 %91, 32
  %93 = icmp ne i32 %92, 0
  br i1 %93, label %94, label %95

94:                                               ; preds = %86
  store ptr null, ptr %7, align 8
  br label %245

95:                                               ; preds = %86
  %96 = load ptr, ptr %10, align 8
  %97 = getelementptr inbounds nuw %struct.aff_struct, ptr %96, i32 0, i32 1
  %98 = load i32, ptr %97, align 8
  %99 = lshr i32 %98, 1
  %100 = and i32 %99, 127
  %101 = and i32 %100, 8
  %102 = icmp eq i32 %101, 0
  br i1 %102, label %103, label %111

103:                                              ; preds = %95
  %104 = load ptr, ptr %10, align 8
  %105 = getelementptr inbounds nuw %struct.aff_struct, ptr %104, i32 0, i32 1
  %106 = load i32, ptr %105, align 8
  %107 = and i32 %106, 1
  %108 = icmp eq i32 %107, 0
  br i1 %108, label %109, label %110

109:                                              ; preds = %103
  store ptr null, ptr %7, align 8
  br label %245

110:                                              ; preds = %103
  br label %111

111:                                              ; preds = %110, %95
  br label %112

112:                                              ; preds = %111, %82
  br label %113

113:                                              ; preds = %112, %81
  br label %114

114:                                              ; preds = %113, %59
  br label %115

115:                                              ; preds = %114, %29
  %116 = load ptr, ptr %10, align 8
  %117 = getelementptr inbounds nuw %struct.aff_struct, ptr %116, i32 0, i32 1
  %118 = load i32, ptr %117, align 8
  %119 = and i32 %118, 1
  %120 = icmp eq i32 %119, 1
  br i1 %120, label %121, label %154

121:                                              ; preds = %115
  %122 = load ptr, ptr %12, align 8
  %123 = load ptr, ptr %8, align 8
  %124 = call ptr @strcpy(ptr noundef %122, ptr noundef %123) #11
  %125 = load ptr, ptr %12, align 8
  %126 = load i64, ptr %9, align 8
  %127 = getelementptr inbounds nuw i8, ptr %125, i64 %126
  %128 = load ptr, ptr %10, align 8
  %129 = getelementptr inbounds nuw %struct.aff_struct, ptr %128, i32 0, i32 1
  %130 = load i32, ptr %129, align 8
  %131 = lshr i32 %130, 10
  %132 = and i32 %131, 16383
  %133 = sext i32 %132 to i64
  %134 = sub i64 0, %133
  %135 = getelementptr inbounds i8, ptr %127, i64 %134
  %136 = load ptr, ptr %10, align 8
  %137 = getelementptr inbounds nuw %struct.aff_struct, ptr %136, i32 0, i32 2
  %138 = load ptr, ptr %137, align 8
  %139 = call ptr @strcpy(ptr noundef %135, ptr noundef %138) #11
  %140 = load ptr, ptr %13, align 8
  %141 = icmp ne ptr %140, null
  br i1 %141, label %142, label %153

142:                                              ; preds = %121
  %143 = load i64, ptr %9, align 8
  %144 = load ptr, ptr %10, align 8
  %145 = getelementptr inbounds nuw %struct.aff_struct, ptr %144, i32 0, i32 1
  %146 = load i32, ptr %145, align 8
  %147 = lshr i32 %146, 10
  %148 = and i32 %147, 16383
  %149 = zext i32 %148 to i64
  %150 = sub i64 %143, %149
  %151 = trunc i64 %150 to i32
  %152 = load ptr, ptr %13, align 8
  store i32 %151, ptr %152, align 4
  br label %153

153:                                              ; preds = %142, %121
  br label %190

154:                                              ; preds = %115
  %155 = load ptr, ptr %13, align 8
  %156 = icmp ne ptr %155, null
  br i1 %156, label %157, label %174

157:                                              ; preds = %154
  %158 = load ptr, ptr %13, align 8
  %159 = load i32, ptr %158, align 4
  %160 = sext i32 %159 to i64
  %161 = load ptr, ptr %10, align 8
  %162 = getelementptr inbounds nuw %struct.aff_struct, ptr %161, i32 0, i32 2
  %163 = load ptr, ptr %162, align 8
  %164 = call i64 @strlen(ptr noundef %163) #14
  %165 = add i64 %160, %164
  %166 = load ptr, ptr %10, align 8
  %167 = getelementptr inbounds nuw %struct.aff_struct, ptr %166, i32 0, i32 1
  %168 = load i32, ptr %167, align 8
  %169 = lshr i32 %168, 10
  %170 = and i32 %169, 16383
  %171 = zext i32 %170 to i64
  %172 = icmp ule i64 %165, %171
  br i1 %172, label %173, label %174

173:                                              ; preds = %157
  store ptr null, ptr %7, align 8
  br label %245

174:                                              ; preds = %157, %154
  %175 = load ptr, ptr %12, align 8
  %176 = load ptr, ptr %10, align 8
  %177 = getelementptr inbounds nuw %struct.aff_struct, ptr %176, i32 0, i32 2
  %178 = load ptr, ptr %177, align 8
  %179 = call ptr @strcpy(ptr noundef %175, ptr noundef %178) #11
  %180 = load ptr, ptr %12, align 8
  %181 = load ptr, ptr %8, align 8
  %182 = load ptr, ptr %10, align 8
  %183 = getelementptr inbounds nuw %struct.aff_struct, ptr %182, i32 0, i32 1
  %184 = load i32, ptr %183, align 8
  %185 = lshr i32 %184, 10
  %186 = and i32 %185, 16383
  %187 = sext i32 %186 to i64
  %188 = getelementptr inbounds i8, ptr %181, i64 %187
  %189 = call ptr @strcat(ptr noundef %180, ptr noundef %188) #11
  br label %190

190:                                              ; preds = %174, %153
  %191 = load ptr, ptr %10, align 8
  %192 = getelementptr inbounds nuw %struct.aff_struct, ptr %191, i32 0, i32 1
  %193 = load i32, ptr %192, align 8
  %194 = lshr i32 %193, 8
  %195 = and i32 %194, 1
  %196 = icmp ne i32 %195, 0
  br i1 %196, label %197, label %199

197:                                              ; preds = %190
  %198 = load ptr, ptr %12, align 8
  store ptr %198, ptr %7, align 8
  br label %245

199:                                              ; preds = %190
  %200 = load ptr, ptr %10, align 8
  %201 = getelementptr inbounds nuw %struct.aff_struct, ptr %200, i32 0, i32 1
  %202 = load i32, ptr %201, align 8
  %203 = lshr i32 %202, 9
  %204 = and i32 %203, 1
  %205 = icmp ne i32 %204, 0
  br i1 %205, label %206, label %214

206:                                              ; preds = %199
  %207 = load ptr, ptr %10, align 8
  %208 = getelementptr inbounds nuw %struct.aff_struct, ptr %207, i32 0, i32 4
  %209 = load ptr, ptr %12, align 8
  %210 = call zeroext i1 @RS_execute(ptr noundef %208, ptr noundef %209)
  br i1 %210, label %211, label %213

211:                                              ; preds = %206
  %212 = load ptr, ptr %12, align 8
  store ptr %212, ptr %7, align 8
  br label %245

213:                                              ; preds = %206
  br label %243

214:                                              ; preds = %199
  call void @llvm.lifetime.start.p0(i64 8, ptr %14) #11
  call void @llvm.lifetime.start.p0(i64 8, ptr %15) #11
  call void @llvm.lifetime.start.p0(i64 4, ptr %16) #11
  %215 = load ptr, ptr %12, align 8
  %216 = call i64 @strlen(ptr noundef %215) #14
  %217 = trunc i64 %216 to i32
  store i32 %217, ptr %16, align 4
  %218 = load i32, ptr %16, align 4
  %219 = add i32 %218, 1
  %220 = sext i32 %219 to i64
  %221 = mul i64 %220, 4
  %222 = call ptr @palloc(i64 noundef %221)
  store ptr %222, ptr %14, align 8
  %223 = load ptr, ptr %12, align 8
  %224 = load ptr, ptr %14, align 8
  %225 = load i32, ptr %16, align 4
  %226 = call i32 @pg_mb2wchar_with_len(ptr noundef %223, ptr noundef %224, i32 noundef %225)
  %227 = sext i32 %226 to i64
  store i64 %227, ptr %15, align 8
  %228 = load ptr, ptr %10, align 8
  %229 = getelementptr inbounds nuw %struct.aff_struct, ptr %228, i32 0, i32 4
  %230 = load ptr, ptr %229, align 8
  %231 = load ptr, ptr %14, align 8
  %232 = load i64, ptr %15, align 8
  %233 = call i32 @pg_regexec(ptr noundef %230, ptr noundef %231, i64 noundef %232, i64 noundef 0, ptr noundef null, i64 noundef 0, ptr noundef null, i32 noundef 0)
  %234 = icmp eq i32 %233, 0
  br i1 %234, label %235, label %238

235:                                              ; preds = %214
  %236 = load ptr, ptr %14, align 8
  call void @pfree(ptr noundef %236)
  %237 = load ptr, ptr %12, align 8
  store ptr %237, ptr %7, align 8
  store i32 1, ptr %17, align 4
  br label %240

238:                                              ; preds = %214
  %239 = load ptr, ptr %14, align 8
  call void @pfree(ptr noundef %239)
  store i32 0, ptr %17, align 4
  br label %240

240:                                              ; preds = %238, %235
  call void @llvm.lifetime.end.p0(i64 4, ptr %16) #11
  call void @llvm.lifetime.end.p0(i64 8, ptr %15) #11
  call void @llvm.lifetime.end.p0(i64 8, ptr %14) #11
  %241 = load i32, ptr %17, align 4
  switch i32 %241, label %247 [
    i32 0, label %242
    i32 1, label %245
  ]

242:                                              ; preds = %240
  br label %243

243:                                              ; preds = %242, %213
  br label %244

244:                                              ; preds = %243
  store ptr null, ptr %7, align 8
  br label %245

245:                                              ; preds = %244, %240, %211, %197, %173, %109, %94, %80, %57, %42, %28
  %246 = load ptr, ptr %7, align 8
  ret ptr %246

247:                                              ; preds = %240
  unreachable
}