; Function Attrs: nounwind uwtable
define internal fastcc noundef ptr @CheckAffix(ptr noundef readonly captures(none) %0, i64 noundef range(i64 -2147483648, 2147483648) %1, ptr noundef %2, i32 noundef range(i32 0, 9) %3, ptr noundef nonnull %4, ptr noundef captures(address_is_null) %5) unnamed_addr #0 {
  %7 = icmp eq i32 %3, 0
  br i1 %7, label %8, label %12

8:                                                ; preds = %6
  %9 = getelementptr inbounds nuw i8, ptr %2, i64 8
  %10 = load i32, ptr %9, align 8
  %11 = and i32 %10, 2
  %.not60 = icmp eq i32 %11, 0
  br i1 %.not60, label %._crit_edge, label %90

12:                                               ; preds = %6
  %13 = and i32 %3, 2
  %.not = icmp eq i32 %13, 0
  br i1 %.not, label %19, label %14

14:                                               ; preds = %12
  %15 = getelementptr inbounds nuw i8, ptr %2, i64 8
  %16 = load i32, ptr %15, align 8
  %17 = and i32 %16, 64
  %.not58 = icmp ne i32 %17, 0
  %18 = and i32 %16, 5
  %or.cond.not = icmp eq i32 %18, 1
  %or.cond = or i1 %.not58, %or.cond.not
  br i1 %or.cond, label %90, label %._crit_edge

19:                                               ; preds = %12
  %20 = and i32 %3, 4
  %.not54 = icmp eq i32 %20, 0
  br i1 %.not54, label %25, label %21

21:                                               ; preds = %19
  %22 = getelementptr inbounds nuw i8, ptr %2, i64 8
  %23 = load i32, ptr %22, align 8
  %24 = and i32 %23, 72
  %or.cond67 = icmp eq i32 %24, 8
  br i1 %or.cond67, label %._crit_edge, label %90

25:                                               ; preds = %19
  %.not55 = icmp samesign ult i32 %3, 8
  %.phi.trans.insert = getelementptr inbounds nuw i8, ptr %2, i64 8
  %.pre = load i32, ptr %.phi.trans.insert, align 8
  br i1 %.not55, label %._crit_edge, label %26

26:                                               ; preds = %25
  %27 = and i32 %.pre, 64
  %.not56 = icmp ne i32 %27, 0
  %28 = and i32 %.pre, 17
  %or.cond69 = icmp eq i32 %28, 0
  %or.cond71 = or i1 %.not56, %or.cond69
  br i1 %or.cond71, label %90, label %._crit_edge

._crit_edge:                                      ; preds = %25, %26, %14, %21, %8
  %29 = phi i32 [ %.pre, %26 ], [ %16, %14 ], [ %23, %21 ], [ %10, %8 ], [ %.pre, %25 ]
  %30 = getelementptr inbounds nuw i8, ptr %2, i64 8
  %31 = and i32 %29, 1
  %.not61 = icmp eq i32 %31, 0
  br i1 %.not61, label %50, label %32

32:                                               ; preds = %._crit_edge
  %33 = tail call ptr @strcpy(ptr noundef nonnull dereferenceable(1) %4, ptr noundef nonnull dereferenceable(1) %0) #14
  %34 = getelementptr inbounds nuw i8, ptr %4, i64 %1
  %35 = load i32, ptr %30, align 8
  %36 = lshr i32 %35, 10
  %37 = and i32 %36, 16383
  %38 = zext nneg i32 %37 to i64
  %39 = sub nsw i64 0, %38
  %40 = getelementptr inbounds i8, ptr %34, i64 %39
  %41 = getelementptr inbounds nuw i8, ptr %2, i64 16
  %42 = load ptr, ptr %41, align 8
  %43 = tail call ptr @strcpy(ptr noundef nonnull dereferenceable(1) %40, ptr noundef nonnull dereferenceable(1) %42) #14
  %.not64 = icmp eq ptr %5, null
  br i1 %.not64, label %70, label %44

44:                                               ; preds = %32
  %45 = load i32, ptr %30, align 8
  %46 = lshr i32 %45, 10
  %47 = and i32 %46, 16383
  %48 = trunc nsw i64 %1 to i32
  %49 = sub i32 %48, %47
  store i32 %49, ptr %5, align 4
  br label %70

50:                                               ; preds = %._crit_edge
  %.not62 = icmp eq ptr %5, null
  br i1 %.not62, label %._crit_edge72, label %51

._crit_edge72:                                    ; preds = %50
  %.phi.trans.insert73 = getelementptr inbounds nuw i8, ptr %2, i64 16
  %.pre74 = load ptr, ptr %.phi.trans.insert73, align 8
  br label %61

51:                                               ; preds = %50
  %52 = load i32, ptr %5, align 4
  %53 = sext i32 %52 to i64
  %54 = getelementptr inbounds nuw i8, ptr %2, i64 16
  %55 = load ptr, ptr %54, align 8
  %56 = tail call i64 @strlen(ptr noundef nonnull dereferenceable(1) %55) #17
  %57 = add i64 %56, %53
  %58 = lshr i32 %29, 10
  %59 = and i32 %58, 16383
  %60 = zext nneg i32 %59 to i64
  %.not63 = icmp ugt i64 %57, %60
  br i1 %.not63, label %61, label %90

61:                                               ; preds = %._crit_edge72, %51
  %62 = phi ptr [ %.pre74, %._crit_edge72 ], [ %55, %51 ]
  %63 = tail call ptr @strcpy(ptr noundef nonnull dereferenceable(1) %4, ptr noundef nonnull dereferenceable(1) %62) #14
  %64 = load i32, ptr %30, align 8
  %65 = lshr i32 %64, 10
  %66 = and i32 %65, 16383
  %67 = zext nneg i32 %66 to i64
  %68 = getelementptr inbounds nuw i8, ptr %0, i64 %67
  %69 = tail call ptr @strcat(ptr noundef nonnull dereferenceable(1) %4, ptr noundef nonnull dereferenceable(1) %68) #14
  br label %70

70:                                               ; preds = %32, %44, %61
  %71 = load i32, ptr %30, align 8
  %72 = and i32 %71, 256
  %.not65 = icmp eq i32 %72, 0
  br i1 %.not65, label %73, label %90

73:                                               ; preds = %70
  %74 = and i32 %71, 512
  %.not66 = icmp eq i32 %74, 0
  br i1 %.not66, label %78, label %75

75:                                               ; preds = %73
  %76 = getelementptr inbounds nuw i8, ptr %2, i64 32
  %77 = tail call zeroext i1 @RS_execute(ptr noundef nonnull %76, ptr noundef nonnull %4) #14
  br i1 %77, label %90, label %89

78:                                               ; preds = %73
  %79 = tail call i64 @strlen(ptr noundef nonnull dereferenceable(1) %4) #17
  %80 = trunc i64 %79 to i32
  %81 = shl i64 %79, 32
  %sext = add i64 %81, 4294967296
  %82 = ashr exact i64 %sext, 30
  %83 = tail call ptr @palloc(i64 noundef %82) #14
  %84 = tail call i32 @pg_mb2wchar_with_len(ptr noundef nonnull %4, ptr noundef %83, i32 noundef %80) #14
  %85 = sext i32 %84 to i64
  %86 = getelementptr inbounds nuw i8, ptr %2, i64 32
  %87 = load ptr, ptr %86, align 8
  %88 = tail call i32 @pg_regexec(ptr noundef %87, ptr noundef %83, i64 noundef %85, i64 noundef 0, ptr noundef null, i64 noundef 0, ptr noundef null, i32 noundef 0) #14
  %.not70 = icmp eq i32 %88, 0
  tail call void @pfree(ptr noundef %83) #14
  br i1 %.not70, label %90, label %89

89:                                               ; preds = %78, %75
  br label %90

90:                                               ; preds = %78, %75, %70, %51, %26, %21, %14, %8, %89
  %.051 = phi ptr [ null, %89 ], [ %4, %78 ], [ null, %8 ], [ null, %14 ], [ null, %21 ], [ null, %26 ], [ null, %51 ], [ %4, %70 ], [ %4, %75 ]
  ret ptr %.051
}